; Function Attrs: mustprogress nofree norecurse nosync nounwind willreturn memory(argmem: write) uwtable
define void @_ZN5faiss22NormalizationTransformC2Ev(ptr noundef nonnull writeonly align 8 captures(none) dereferenceable(24) initializes((0, 17), (20, 24)) %0) unnamed_addr #17 align 2 {
  %2 = getelementptr inbounds nuw i8, ptr %0, i64 8
  store i32 -1, ptr %2, align 8, !tbaa !37
  %3 = getelementptr inbounds nuw i8, ptr %0, i64 12
  store i32 -1, ptr %3, align 4, !tbaa !29
  %4 = getelementptr inbounds nuw i8, ptr %0, i64 16
  store i8 1, ptr %4, align 8, !tbaa !16
  store ptr getelementptr inbounds nuw inrange(-16, 48) (i8, ptr @_ZTVN5faiss22NormalizationTransformE, i64 16), ptr %0, align 8, !tbaa !41
  %5 = getelementptr inbounds nuw i8, ptr %0, i64 20
  store float -1.000000e+00, ptr %5, align 4, !tbaa !130
  ret void
}